(dp0
S'17478'
p1
(lp2
S'2002 Weingut Hirsch Gr&#252;ner Veltliner Kammern'
p3
asS'26767'
p4
(lp5
S'2001 Ch&#226;teau Pavie Decesse'
p6
asS'31665'
p7
(lp8
S'2003 Clos des Papes Ch&#226;teauneuf-du-Pape'
p9
asS'3886'
p10
(lp11
S'NV Pride Mountain Vineyards Mistelle de Viognier'
p12
asS'1105469'
p13
(lp14
S'2009 SonkinCellars Persona White Hawk/Alder Springs'
p15
asS'18856'
p16
(lp17
S'1981 Ch&#226;teau de Beaucastel Ch&#226;teauneuf-du-Pape'
p18
asS'10479'
p19
(lp20
S'1992 Joseph Phelps Insignia'
p21
asS'3495'
p22
(lp23
S'1995 Ch&#226;teau Pichon-Longueville Baron'
p24
asS'3793'
p25
(lp26
S'1995 Ch&#226;teau L&#233;oville Barton'
p27
asS'8523'
p28
(lp29
S'1982 Ch&#226;teau Palmer'
p30
asS'17796'
p31
(lp32
S'1988 Ch&#226;teau Pichon Longueville Comtesse de Lalande'
p33
asS'16892'
p34
(lp35
S'1990 Krug Champagne Brut'
p36
asS'137'
p37
(lp38
S'1999 DeLille Cellars Chaleur Estate'
p39
asS'5851'
p40
(lp41
S'2001 Les Cailloux (Lucien et Andr&#233; Brunel) Ch&#226;teauneuf-du-Pape'
p42
asS'13162'
p43
(lp44
S'1991 E. Guigal C&#244;te-R&#244;tie La Turque'
p45
asS'372'
p46
(lp47
S'1999 Quilceda Creek Cabernet Sauvignon'
p48
asS'8341'
p49
(lp50
S'1998 Sportoletti Rosso Villa Fidelia Umbria IGT'
p51
asS'40451'
p52
(lp53
S'2001 Thierry Allemand Cornas Reynard'
p54
asS'3052'
p55
(lp56
S'2000 R&#233;serve de la Comtesse'
p57
asS'255'
p58
(lp59
S'1982 Ch&#226;teau L&#233;oville Poyferr&#233;'
p60
as.