(dp0
S'17478'
p1
ccollections
defaultdict
p2
(c__builtin__
int
p3
tp4
Rp5
S'92\n'
p6
I1
ssS'26767'
p7
g2
(g3
tp8
Rp9
S'N/A\n'
p10
I1
ssS'31665'
p11
g2
(g3
tp12
Rp13
S'N/A\n'
p14
I1
ssS'3886'
p15
g2
(g3
tp16
Rp17
S'N/A\n'
p18
I1
ssS'1105469'
p19
g2
(g3
tp20
Rp21
S'N/A\n'
p22
I1
ssS'18856'
p23
g2
(g3
tp24
Rp25
S'96\n'
p26
I1
ssS'10479'
p27
g2
(g3
tp28
Rp29
S'91\n'
p30
I1
ssS'3495'
p31
g2
(g3
tp32
Rp33
S'93\n'
p34
I1
ssS'3793'
p35
g2
(g3
tp36
Rp37
S'N/A\n'
p38
I1
ssS'8523'
p39
g2
(g3
tp40
Rp41
S'N/A\n'
p42
I1
ssS'17796'
p43
g2
(g3
tp44
Rp45
S'86\n'
p46
I1
ssS'16892'
p47
g2
(g3
tp48
Rp49
S'96\n'
p50
I1
ssS'137'
p51
g2
(g3
tp52
Rp53
S'91\n'
p54
I1
ssS'5851'
p55
g2
(g3
tp56
Rp57
S'91\n'
p58
I1
ssS'13162'
p59
g2
(g3
tp60
Rp61
S'N/A\n'
p62
I1
ssS'372'
p63
g2
(g3
tp64
Rp65
S'95\n'
p66
I1
ssS'8341'
p67
g2
(g3
tp68
Rp69
S'82\n'
p70
I1
ssS'40451'
p71
g2
(g3
tp72
Rp73
S'92\n'
p74
I1
ssS'3052'
p75
g2
(g3
tp76
Rp77
S'89\n'
p78
I1
ssS'255'
p79
g2
(g3
tp80
Rp81
S'94\n'
p82
I1
ss.