(dp0
S'managed'
p1
ccollections
defaultdict
p2
(c__builtin__
int
p3
tp4
Rp5
S'3793'
p6
I1
ssS'four'
p7
g2
(g3
tp8
Rp9
S'26767'
p10
I1
ssS'baby'
p11
g2
(g3
tp12
Rp13
S'1105469'
p14
I1
sS'137'
p15
I1
sS'255'
p16
I1
ssS'asian'
p17
g2
(g3
tp18
Rp19
g15
I1
ssS'go'
p20
g2
(g3
tp21
Rp22
g10
I1
ssS'lacy'
p23
g2
(g3
tp24
Rp25
S'16892'
p26
I1
ssS'remarkably'
p27
g2
(g3
tp28
Rp29
S'3495'
p30
I1
sg6
I1
ssS'seemed'
p31
g2
(g3
tp32
Rp33
g16
I1
ssS'grape'
p34
g2
(g3
tp35
Rp36
S'3886'
p37
I1
ssS'gunpowder'
p38
g2
(g3
tp39
Rp40
S'13162'
p41
I1
ssS'young'
p42
g2
(g3
tp43
Rp44
S'372'
p45
I1
sS'40451'
p46
I2
ssS'smile'
p47
g2
(g3
tp48
Rp49
g45
I1
ssS'dramatically'
p50
g2
(g3
tp51
Rp52
S'31665'
p53
I1
ssS'dessert'
p54
g2
(g3
tp55
Rp56
g37
I1
ssS'fat'
p57
g2
(g3
tp58
Rp59
g15
I1
sg16
I1
ssS'laser'
p60
g2
(g3
tp61
Rp62
S'17478'
p63
I1
ssS'drinking'
p64
g2
(g3
tp65
Rp66
g26
I1
ssS'cool'
p67
g2
(g3
tp68
Rp69
g37
I1
ssS'level'
p70
g2
(g3
tp71
Rp72
S'8523'
p73
I1
ssS'notes'
p74
g2
(g3
tp75
Rp76
g63
I1
sg10
I1
sg30
I1
sg26
I1
sg46
I2
sS'3052'
p77
I3
ssS'chambord'
p78
g2
(g3
tp79
Rp80
g30
I1
ssS'large'
p81
g2
(g3
tp82
Rp83
g14
I1
ssS'loads'
p84
g2
(g3
tp85
Rp86
S'5851'
p87
I2
ssS'round'
p88
g2
(g3
tp89
Rp90
g73
I1
sS'8341'
p91
I1
ssS'tired'
p92
g2
(g3
tp93
Rp94
S'17796'
p95
I1
ssS'almond'
p96
g2
(g3
tp97
Rp98
g26
I1
ssS'second'
p99
g2
(g3
tp100
Rp101
g37
I1
ssS'acid'
p102
g2
(g3
tp103
Rp104
g77
I1
ssS'expressive'
p105
g2
(g3
tp106
Rp107
S'18856'
p108
I1
sg46
I1
ssS'drinks'
p109
g2
(g3
tp110
Rp111
g41
I1
ssS'even'
p112
g2
(g3
tp113
Rp114
g15
I1
ssS'giving'
p115
g2
(g3
tp116
Rp117
S'10479'
p118
I1
ssS'deeply'
p119
g2
(g3
tp120
Rp121
g15
I1
sg10
I1
sg53
I1
ssS'espresso'
p122
g2
(g3
tp123
Rp124
g77
I1
ssS'reminiscent'
p125
g2
(g3
tp126
Rp127
g15
I1
sg16
I1
ssS'pristine'
p128
g2
(g3
tp129
Rp130
g16
I1
ssS'international'
p131
g2
(g3
tp132
Rp133
g91
I1
ssS'ever'
p134
g2
(g3
tp135
Rp136
g37
I1
sg16
I1
ssS'plush'
p137
g2
(g3
tp138
Rp139
g45
I1
sg15
I1
ssS'filled'
p140
g2
(g3
tp141
Rp142
g108
I1
ssS'hasn'
p143
g2
(g3
tp144
Rp145
g37
I1
ssS'unfermented'
p146
g2
(g3
tp147
Rp148
g37
I1
ssS'hours'
p149
g2
(g3
tp150
Rp151
g45
I1
sg16
I1
ssS'focused'
p152
g2
(g3
tp153
Rp154
g63
I1
ssS'sexy'
p155
g2
(g3
tp156
Rp157
g41
I1
ssS'along'
p158
g2
(g3
tp159
Rp160
g26
I1
sg77
I1
ssS'strong'
p161
g2
(g3
tp162
Rp163
g15
I1
ssS'dry'
p164
g2
(g3
tp165
Rp166
g63
I1
sg108
I2
ssS'pleasant'
p167
g2
(g3
tp168
Rp169
g73
I1
ssS'oodles'
p170
g2
(g3
tp171
Rp172
g15
I1
ssS'vintages'
p173
g2
(g3
tp174
Rp175
g73
I1
ssS'smoke'
p176
g2
(g3
tp177
Rp178
g45
I1
sg108
I1
sg46
I1
sg41
I1
ssS'bob'
p179
g2
(g3
tp180
Rp181
g16
I1
ssS'pauillac'
p182
g2
(g3
tp183
Rp184
g77
I1
ssS'settled'
p185
g2
(g3
tp186
Rp187
g15
I1
ssS'fantastic'
p188
g2
(g3
tp189
Rp190
g46
I1
sg77
I1
ssS'love'
p191
g2
(g3
tp192
Rp193
g15
I1
sg87
I1
ssS'limp'
p194
g2
(g3
tp195
Rp196
g95
I1
ssS'shoved'
p197
g2
(g3
tp198
Rp199
g6
I1
ssS'marked'
p200
g2
(g3
tp201
Rp202
g10
I1
ssS'scaled'
p203
g2
(g3
tp204
Rp205
g14
I1
ssS'meaty'
p206
g2
(g3
tp207
Rp208
g108
I1
ssS'flavors'
p209
g2
(g3
tp210
Rp211
g26
I1
ssS'viognier'
p212
g2
(g3
tp213
Rp214
g37
I1
ssS'would'
p215
g2
(g3
tp216
Rp217
g63
I1
ssS'distinct'
p218
g2
(g3
tp219
Rp220
g77
I1
sg6
I1
ssS'faint'
p221
g2
(g3
tp222
Rp223
g37
I1
ssS'tightly'
p224
g2
(g3
tp225
Rp226
g87
I1
ssS'creamy'
p227
g2
(g3
tp228
Rp229
g26
I1
ssS'gorgeous'
p230
g2
(g3
tp231
Rp232
g45
I1
sg6
I1
ssS'blueberry'
p233
g2
(g3
tp234
Rp235
g91
I1
ssS'sort'
p236
g2
(g3
tp237
Rp238
g26
I1
ssS'chocolate'
p239
g2
(g3
tp240
Rp241
g10
I1
ssS'glass'
p242
g2
(g3
tp243
Rp244
g6
I1
ssS'particular'
p245
g2
(g3
tp246
Rp247
g16
I1
ssS'olive'
p248
g2
(g3
tp249
Rp250
g108
I2
sg46
I1
sg77
I1
ssS'glad'
p251
g2
(g3
tp252
Rp253
g10
I1
ssS'96'
p254
g2
(g3
tp255
Rp256
g108
I1
ssS'1991'
p257
g2
(g3
tp258
Rp259
g118
I1
ssS'1990'
p260
g2
(g3
tp261
Rp262
g108
I1
ssS'hour'
p263
g2
(g3
tp264
Rp265
g77
I1
ssS'1996'
p266
g2
(g3
tp267
Rp268
g26
I1
ssS'unreal'
p269
g2
(g3
tp270
Rp271
g63
I1
ssS'obvious'
p272
g2
(g3
tp273
Rp274
g26
I1
ssS'cab'
p275
g2
(g3
tp276
Rp277
g15
I1
ssS'beautiful'
p278
g2
(g3
tp279
Rp280
g6
I1
ssS'tar'
p281
g2
(g3
tp282
Rp283
g46
I2
sg16
I1
ssS'awesome'
p284
g2
(g3
tp285
Rp286
g16
I1
ssS'high'
p287
g2
(g3
tp288
Rp289
g15
I1
sg87
I1
ssS'purchased'
p290
g2
(g3
tp291
Rp292
g16
I1
ssS'sharp'
p293
g2
(g3
tp294
Rp295
g87
I1
ssS'keep'
p296
g2
(g3
tp297
Rp298
g37
I1
ssS'needs'
p299
g2
(g3
tp300
Rp301
g77
I2
ssS'textural'
p302
g2
(g3
tp303
Rp304
g26
I1
ssS'pure'
p305
g2
(g3
tp306
Rp307
g30
I1
sg87
I1
sg6
I1
sg16
I1
ssS'profile'
p308
g2
(g3
tp309
Rp310
g16
I1
ssS'less'
p311
g2
(g3
tp312
Rp313
g95
I1
sg118
I1
ssS'waves'
p314
g2
(g3
tp315
Rp316
g45
I1
ssS'floral'
p317
g2
(g3
tp318
Rp319
g46
I1
sg30
I1
sg15
I1
sg37
I1
ssS'fn'
p320
g2
(g3
tp321
Rp322
g37
I1
ssS'chilled'
p323
g2
(g3
tp324
Rp325
g37
I1
ssS'short'
p326
g2
(g3
tp327
Rp328
g95
I1
ssS'third'
p329
g2
(g3
tp330
Rp331
g53
I1
ssS'element'
p332
g2
(g3
tp333
Rp334
g26
I1
ssS'green'
p335
g2
(g3
tp336
Rp337
g77
I3
ssS'pleasure'
p338
g2
(g3
tp339
Rp340
g26
I1
ssS'pulled'
p341
g2
(g3
tp342
Rp343
g16
I1
ssS'playing'
p344
g2
(g3
tp345
Rp346
g46
I1
ssS'wine'
p347
g2
(g3
tp348
Rp349
g37
I2
sg53
I1
sg30
I1
sg15
I1
sg87
I1
sg41
I1
sg46
I3
sg77
I1
sg16
I2
ssS'blind'
p350
g2
(g3
tp351
Rp352
g63
I1
sg26
I1
ssS'saturated'
p353
g2
(g3
tp354
Rp355
g46
I1
ssS'mute'
p356
g2
(g3
tp357
Rp358
g73
I1
ssS'confected'
p359
g2
(g3
tp360
Rp361
g16
I1
ssS'years'
p362
g2
(g3
tp363
Rp364
g77
I1
ssS'course'
p365
g2
(g3
tp366
Rp367
g16
I1
ssS'flattering'
p368
g2
(g3
tp369
Rp370
g37
I1
ssS'still'
p371
g2
(g3
tp372
Rp373
g45
I1
sg77
I2
sg87
I1
sg16
I1
ssS'perfect'
p374
g2
(g3
tp375
Rp376
g10
I2
ssS'style'
p377
g2
(g3
tp378
Rp379
g91
I1
ssS'interesting'
p380
g2
(g3
tp381
Rp382
g95
I1
sg26
I1
sg37
I1
ssS'actually'
p383
g2
(g3
tp384
Rp385
g108
I1
ssS'degrees'
p386
g2
(g3
tp387
Rp388
g37
I1
ssS'troubled'
p389
g2
(g3
tp390
Rp391
g10
I1
ssS'coffee'
p392
g2
(g3
tp393
Rp394
g77
I1
ssS'pavlovian'
p395
g2
(g3
tp396
Rp397
g63
I1
ssS'always'
p398
g2
(g3
tp399
Rp400
g45
I1
ssS'freshness'
p401
g2
(g3
tp402
Rp403
g14
I1
ssS'isere'
p404
g2
(g3
tp405
Rp406
g15
I1
ssS'l\xc3'
p407
g2
(g3
tp408
Rp409
g16
I1
ssS'bursting'
p410
g2
(g3
tp411
Rp412
g15
I1
ssS'really'
p413
g2
(g3
tp414
Rp415
g26
I1
sg77
I1
ssS'silky'
p416
g2
(g3
tp417
Rp418
g45
I1
ssS'opened'
p419
g2
(g3
tp420
Rp421
g77
I1
sg16
I1
ssS'may'
p422
g2
(g3
tp423
Rp424
g108
I1
ssS'dominated'
p425
g2
(g3
tp426
Rp427
g16
I1
ssS'got'
p428
g2
(g3
tp429
Rp430
g108
I1
ssS'integrated'
p431
g2
(g3
tp432
Rp433
g37
I1
sg77
I1
ssS'red'
p434
g2
(g3
tp435
Rp436
g77
I1
ssS'shows'
p437
g2
(g3
tp438
Rp439
g63
I2
sg15
I1
ssS'franc'
p440
g2
(g3
tp441
Rp442
g15
I1
ssS'wines'
p443
g2
(g3
tp444
Rp445
g63
I1
ssS'horse'
p446
g2
(g3
tp447
Rp448
g108
I1
ssS'quite'
p449
g2
(g3
tp450
Rp451
g46
I1
sg108
I1
sg37
I1
sg15
I1
sg87
I1
sg45
I1
sg77
I2
sg16
I2
ssS'mmm'
p452
g2
(g3
tp453
Rp454
g87
I1
ssS'base'
p455
g2
(g3
tp456
Rp457
g16
I1
ssS'1981'
p458
g2
(g3
tp459
Rp460
g108
I1
ssS'raisin'
p461
g2
(g3
tp462
Rp463
g10
I1
ssS'times'
p464
g2
(g3
tp465
Rp466
g16
I1
ssS'signature'
p467
g2
(g3
tp468
Rp469
g26
I1
ssS'heartbeat'
p470
g2
(g3
tp471
Rp472
g63
I1
ssS'think'
p473
g2
(g3
tp474
Rp475
g77
I1
sg6
I1
ssS'first'
p476
g2
(g3
tp477
Rp478
g108
I1
sg37
I1
sg77
I1
ssS'exotic'
p479
g2
(g3
tp480
Rp481
g15
I2
ssS'already'
p482
g2
(g3
tp483
Rp484
g53
I1
ssS'powerful'
p485
g2
(g3
tp486
Rp487
g108
I1
ssS'primary'
p488
g2
(g3
tp489
Rp490
g16
I1
ssS'one'
p491
g2
(g3
tp492
Rp493
g63
I1
sg46
I1
sg6
I1
ssS'improving'
p494
g2
(g3
tp495
Rp496
g108
I1
ssS'cornas'
p497
g2
(g3
tp498
Rp499
g46
I1
ssS'delicious'
p500
g2
(g3
tp501
Rp502
g87
I1
ssS'blows'
p503
g2
(g3
tp504
Rp505
g26
I1
ssS'open'
p506
g2
(g3
tp507
Rp508
g108
I1
ssS'toasted'
p509
g2
(g3
tp510
Rp511
g26
I2
ssS'little'
p512
g2
(g3
tp513
Rp514
g108
I1
sg118
I1
ssS'bite'
p515
g2
(g3
tp516
Rp517
g37
I1
ssS'provenance'
p518
g2
(g3
tp519
Rp520
g16
I1
ssS'2'
p521
g2
(g3
tp522
Rp523
g45
I1
sg10
I1
ssS'white'
p524
g2
(g3
tp525
Rp526
g53
I1
sg87
I1
ssS'approachable'
p527
g2
(g3
tp528
Rp529
g118
I1
ssS'somewhat'
p530
g2
(g3
tp531
Rp532
g30
I1
sg118
I1
sg10
I1
ssS'b'
p533
g2
(g3
tp534
Rp535
g77
I2
ssS'15'
p536
g2
(g3
tp537
Rp538
g77
I1
ssS'prune'
p539
g2
(g3
tp540
Rp541
g10
I1
ssS'showed'
p542
g2
(g3
tp543
Rp544
g77
I1
sg15
I1
ssS'structured'
p545
g2
(g3
tp546
Rp547
g77
I1
ssS'intensity'
p548
g2
(g3
tp549
Rp550
g53
I1
ssS'stalk'
p551
g2
(g3
tp552
Rp553
g95
I1
ssS'cork'
p554
g2
(g3
tp555
Rp556
g10
I1
sg16
I2
ssS'tannins'
p557
g2
(g3
tp558
Rp559
g45
I1
ssS'tasted'
p560
g2
(g3
tp561
Rp562
g16
I2
ssS'outstanding'
p563
g2
(g3
tp564
Rp565
g16
I1
ssS'juicy'
p566
g2
(g3
tp567
Rp568
g46
I1
ssS'juice'
p569
g2
(g3
tp570
Rp571
g37
I1
ssS'need'
p572
g2
(g3
tp573
Rp574
g53
I1
ssS'seen'
p575
g2
(g3
tp576
Rp577
g16
I1
ssS'clearly'
p578
g2
(g3
tp579
Rp580
g15
I1
sg16
I1
ssS'clove'
p581
g2
(g3
tp582
Rp583
g16
I1
ssS'dancing'
p584
g2
(g3
tp585
Rp586
g26
I1
ssS'provokes'
p587
g2
(g3
tp588
Rp589
g63
I1
ssS'terrific'
p590
g2
(g3
tp591
Rp592
g108
I1
sg46
I1
ssS'also'
p593
g2
(g3
tp594
Rp595
g16
I1
ssS'magnum'
p596
g2
(g3
tp597
Rp598
g73
I1
ssS'added'
p599
g2
(g3
tp600
Rp601
g37
I1
ssS'though'
p602
g2
(g3
tp603
Rp604
g95
I1
sg45
I1
sg15
I1
ssS'brioche'
p605
g2
(g3
tp606
Rp607
g26
I1
ssS'significant'
p608
g2
(g3
tp609
Rp610
g108
I1
ssS'class'
p611
g2
(g3
tp612
Rp613
g45
I1
ssS'mineral'
p614
g2
(g3
tp615
Rp616
g87
I1
ssS'dom'
p617
g2
(g3
tp618
Rp619
g26
I1
ssS'chablis'
p620
g2
(g3
tp621
Rp622
g63
I1
ssS'definitely'
p623
g2
(g3
tp624
Rp625
g14
I1
sg77
I1
ssS'clean'
p626
g2
(g3
tp627
Rp628
g26
I1
ssS'away'
p629
g2
(g3
tp630
Rp631
g26
I1
ssS'came'
p632
g2
(g3
tp633
Rp634
g16
I1
ssS'precise'
p635
g2
(g3
tp636
Rp637
g26
I1
ssS'impression'
p638
g2
(g3
tp639
Rp640
g26
I1
ssS'stunned'
p641
g2
(g3
tp642
Rp643
g15
I1
sg16
I1
ssS'show'
p644
g2
(g3
tp645
Rp646
g16
I1
ssS'bring'
p647
g2
(g3
tp648
Rp649
g45
I1
ssS'decade'
p650
g2
(g3
tp651
Rp652
g16
I1
ssS'current'
p653
g2
(g3
tp654
Rp655
g26
I1
ssS'stained'
p656
g2
(g3
tp657
Rp658
g16
I1
ssS'texture'
p659
g2
(g3
tp660
Rp661
g45
I1
ssS'jam'
p662
g2
(g3
tp663
Rp664
g53
I1
ssS'black'
p665
g2
(g3
tp666
Rp667
g46
I1
sg108
I1
sg6
I1
sg73
I1
sg45
I1
sg118
I1
sg16
I1
ssS'pretty'
p668
g2
(g3
tp669
Rp670
g87
I1
ssS'hope'
p671
g2
(g3
tp672
Rp673
g91
I1
ssS'gains'
p674
g2
(g3
tp675
Rp676
g91
I1
ssS'beau'
p677
g2
(g3
tp678
Rp679
g108
I1
ssS'stop'
p680
g2
(g3
tp681
Rp682
g53
I1
ssS'minerality'
p683
g2
(g3
tp684
Rp685
g77
I1
ssS'nearly'
p686
g2
(g3
tp687
Rp688
g16
I1
ssS'tobacco'
p689
g2
(g3
tp690
Rp691
g73
I1
sg95
I1
sg77
I3
sg16
I1
ssS'leather'
p692
g2
(g3
tp693
Rp694
g108
I1
ssS'bay'
p695
g2
(g3
tp696
Rp697
g77
I1
ssS'stuff'
p698
g2
(g3
tp699
Rp700
g16
I1
ssS'caramel'
p701
g2
(g3
tp702
Rp703
g15
I1
ssS'stunningly'
p704
g2
(g3
tp705
Rp706
g45
I1
ssS'relative'
p707
g2
(g3
tp708
Rp709
g53
I1
ssS'see'
p710
g2
(g3
tp711
Rp712
g10
I1
ssS'violet'
p713
g2
(g3
tp714
Rp715
g45
I1
sg30
I1
ssS'flavor'
p716
g2
(g3
tp717
Rp718
g16
I1
ssS'best'
p719
g2
(g3
tp720
Rp721
g16
I1
ssS'lots'
p722
g2
(g3
tp723
Rp724
g118
I1
sg15
I1
ssS'wow'
p725
g2
(g3
tp726
Rp727
g77
I1
sg53
I2
ssS'definite'
p728
g2
(g3
tp729
Rp730
g10
I1
ssS'musky'
p731
g2
(g3
tp732
Rp733
g73
I1
ssS'closed'
p734
g2
(g3
tp735
Rp736
g77
I1
ssS'acidic'
p737
g2
(g3
tp738
Rp739
g46
I1
ssS'bramble'
p740
g2
(g3
tp741
Rp742
g87
I1
ssS'recently'
p743
g2
(g3
tp744
Rp745
g16
I2
ssS'initially'
p746
g2
(g3
tp747
Rp748
g16
I1
ssS'sipper'
p749
g2
(g3
tp750
Rp751
g26
I1
ssS'however'
p752
g2
(g3
tp753
Rp754
g26
I1
sg77
I1
sg37
I1
ssS'sipped'
p755
g2
(g3
tp756
Rp757
g37
I1
ssS'reaction'
p758
g2
(g3
tp759
Rp760
g63
I1
ssS'improved'
p761
g2
(g3
tp762
Rp763
g108
I1
ssS'many'
p764
g2
(g3
tp765
Rp766
g73
I1
ssS'barely'
p767
g2
(g3
tp768
Rp769
g16
I2
ssS'layered'
p770
g2
(g3
tp771
Rp772
g15
I1
ssS'let'
p773
g2
(g3
tp774
Rp775
g91
I1
ssS'expression'
p776
g2
(g3
tp777
Rp778
g45
I1
ssS'glorious'
p779
g2
(g3
tp780
Rp781
g77
I1
ssS'terse'
p782
g2
(g3
tp783
Rp784
g30
I1
ssS'sweet'
p785
g2
(g3
tp786
Rp787
g30
I1
sg6
I1
sg16
I1
ssS'pop'
p788
g2
(g3
tp789
Rp790
g77
I1
ssS'cd'
p791
g2
(g3
tp792
Rp793
g15
I1
ssS'tons'
p794
g2
(g3
tp795
Rp796
g16
I1
ssS'loaded'
p797
g2
(g3
tp798
Rp799
g108
I1
sg45
I1
ssS'supple'
p800
g2
(g3
tp801
Rp802
g45
I1
ssS'quit'
p803
g2
(g3
tp804
Rp805
g53
I1
ssS'three'
p806
g2
(g3
tp807
Rp808
g16
I1
ssS'quickly'
p809
g2
(g3
tp810
Rp811
g37
I1
ssS'extraction'
p812
g2
(g3
tp813
Rp814
g53
I1
ssS'peppery'
p815
g2
(g3
tp816
Rp817
g14
I1
ssS'much'
p818
g2
(g3
tp819
Rp820
g95
I2
sg26
I1
sg37
I1
ssS'expected'
p821
g2
(g3
tp822
Rp823
g16
I1
ssS'yeasty'
p824
g2
(g3
tp825
Rp826
g26
I1
ssS'lovely'
p827
g2
(g3
tp828
Rp829
g108
I1
sg30
I1
ssS'firm'
p830
g2
(g3
tp831
Rp832
g45
I1
ssS'life'
p833
g2
(g3
tp834
Rp835
g91
I1
ssS'fleeting'
p836
g2
(g3
tp837
Rp838
g6
I1
ssS'deeper'
p839
g2
(g3
tp840
Rp841
g53
I1
ssS'mushroom'
p842
g2
(g3
tp843
Rp844
g26
I1
ssS'fest'
p845
g2
(g3
tp846
Rp847
g77
I1
ssS'last'
p848
g2
(g3
tp849
Rp850
g10
I1
ssS'160'
p851
g2
(g3
tp852
Rp853
g15
I1
ssS'intriguing'
p854
g2
(g3
tp855
Rp856
g77
I1
ssS'mouthfeel'
p857
g2
(g3
tp858
Rp859
g15
I1
ssS'air'
p860
g2
(g3
tp861
Rp862
g77
I1
ssS'near'
p863
g2
(g3
tp864
Rp865
g16
I1
ssS'fun'
p866
g2
(g3
tp867
Rp868
g14
I1
ssS'decanted'
p869
g2
(g3
tp870
Rp871
g45
I1
ssS'va'
p872
g2
(g3
tp873
Rp874
g15
I1
ssS'ripe'
p875
g2
(g3
tp876
Rp877
g63
I1
sg77
I2
ssS'lush'
p878
g2
(g3
tp879
Rp880
g26
I1
ssS'surprisingly'
p881
g2
(g3
tp882
Rp883
g46
I1
sg16
I1
ssS'surface'
p884
g2
(g3
tp885
Rp886
g16
I1
ssS'beautifully'
p887
g2
(g3
tp888
Rp889
g118
I1
ssS'ready'
p890
g2
(g3
tp891
Rp892
g16
I1
ssS'different'
p893
g2
(g3
tp894
Rp895
g63
I1
ssS'bottles'
p896
g2
(g3
tp897
Rp898
g10
I1
ssS'perhaps'
p899
g2
(g3
tp900
Rp901
g108
I1
ssS'vintage'
p902
g2
(g3
tp903
Rp904
g108
I1
ssS'wound'
p905
g2
(g3
tp906
Rp907
g87
I1
ssS'grows'
p908
g2
(g3
tp909
Rp910
g26
I1
ssS'week'
p911
g2
(g3
tp912
Rp913
g53
I1
ssS'fairly'
p914
g2
(g3
tp915
Rp916
g73
I1
ssS'finish'
p917
g2
(g3
tp918
Rp919
g30
I1
ssS'flesh'
p920
g2
(g3
tp921
Rp922
g77
I1
ssS'drink'
p923
g2
(g3
tp924
Rp925
g16
I1
ssS'monolithic'
p926
g2
(g3
tp927
Rp928
g91
I1
ssS'beast'
p929
g2
(g3
tp930
Rp931
g41
I1
ssS'brooding'
p932
g2
(g3
tp933
Rp934
g6
I1
ssS'fruit'
p935
g2
(g3
tp936
Rp937
g73
I1
sg77
I2
sg45
I1
sg15
I1
sg16
I2
ssS'moving'
p938
g2
(g3
tp939
Rp940
g53
I1
ssS'totally'
p941
g2
(g3
tp942
Rp943
g63
I2
sg77
I1
ssS'tighter'
p944
g2
(g3
tp945
Rp946
g118
I1
ssS'kept'
p947
g2
(g3
tp948
Rp949
g26
I1
ssS'well'
p950
g2
(g3
tp951
Rp952
g41
I1
sg108
I1
sg37
I1
ssS'tapenade'
p953
g2
(g3
tp954
Rp955
g108
I1
ssS'bottle'
p956
g2
(g3
tp957
Rp958
g108
I1
sg10
I1
sg53
I1
sg37
I1
sg16
I3
ssS'grappa'
p959
g2
(g3
tp960
Rp961
g37
I1
ssS'amazed'
p962
g2
(g3
tp963
Rp964
g16
I1
ssS'alluring'
p965
g2
(g3
tp966
Rp967
g10
I1
ssS'slutty'
p968
g2
(g3
tp969
Rp970
g16
I1
ssS'background'
p971
g2
(g3
tp972
Rp973
g26
I1
ssS'aeration'
p974
g2
(g3
tp975
Rp976
g108
I1
ssS'roasted'
p977
g2
(g3
tp978
Rp979
g77
I1
sg16
I1
ssS'poyferr\xc3'
p980
g2
(g3
tp981
Rp982
g16
I1
ssS'yet'
p983
g2
(g3
tp984
Rp985
g91
I1
sg77
I1
ssS'oville'
p986
g2
(g3
tp987
Rp988
g16
I1
ssS'hint'
p989
g2
(g3
tp990
Rp991
g16
I1
ssS'thinking'
p992
g2
(g3
tp993
Rp994
g63
I1
ssS'cherry'
p995
g2
(g3
tp996
Rp997
g46
I1
sg118
I1
sg87
I1
ssS'character'
p998
g2
(g3
tp999
Rp1000
g46
I1
sg15
I1
sg6
I1
ssS'except'
p1001
g2
(g3
tp1002
Rp1003
g108
I1
ssS'cassis'
p1004
g2
(g3
tp1005
Rp1006
g77
I1
ssS'4'
p1007
g2
(g3
tp1008
Rp1009
g16
I1
ssS'struck'
p1010
g2
(g3
tp1011
Rp1012
g26
I1
ssS'real'
p1013
g2
(g3
tp1014
Rp1015
g14
I1
ssS'ample'
p1016
g2
(g3
tp1017
Rp1018
g15
I1
ssS'big'
p1019
g2
(g3
tp1020
Rp1021
g73
I1
sg14
I1
ssS'showing'
p1022
g2
(g3
tp1023
Rp1024
g45
I1
sg77
I1
sg16
I1
ssS'amy'
p1025
g2
(g3
tp1026
Rp1027
g15
I1
ssS'know'
p1028
g2
(g3
tp1029
Rp1030
g37
I1
ssS'mom'
p1031
g2
(g3
tp1032
Rp1033
g16
I1
ssS'world'
p1034
g2
(g3
tp1035
Rp1036
g45
I1
ssS'bit'
p1037
g2
(g3
tp1038
Rp1039
g73
I1
sg108
I1
sg95
I1
sg46
I1
sg16
I1
ssS'unique'
p1040
g2
(g3
tp1041
Rp1042
g45
I1
sg26
I1
ssS'like'
p1043
g2
(g3
tp1044
Rp1045
g63
I1
sg95
I1
sg26
I1
ssS'd'
p1046
g2
(g3
tp1047
Rp1048
g15
I1
ssS'earthy'
p1049
g2
(g3
tp1050
Rp1051
g118
I1
ssS'50'
p1052
g2
(g3
tp1053
Rp1054
g37
I1
ssS'nose'
p1055
g2
(g3
tp1056
Rp1057
g63
I1
sg95
I1
sg30
I1
sg6
I1
sg45
I1
sg91
I1
sg46
I1
sg118
I1
sg16
I1
ssS'served'
p1058
g2
(g3
tp1059
Rp1060
g73
I1
sg37
I2
ssS'revisiting'
p1061
g2
(g3
tp1062
Rp1063
g26
I1
ssS'soft'
p1064
g2
(g3
tp1065
Rp1066
g118
I1
ssS'hallmark'
p1067
g2
(g3
tp1068
Rp1069
g45
I1
ssS'right'
p1070
g2
(g3
tp1071
Rp1072
g77
I1
ssS'exposed'
p1073
g2
(g3
tp1074
Rp1075
g16
I1
ssS'back'
p1076
g2
(g3
tp1077
Rp1078
g15
I1
ssS'leaf'
p1079
g2
(g3
tp1080
Rp1081
g77
I1
ssS'purple'
p1082
g2
(g3
tp1083
Rp1084
g14
I1
ssS'lampreia'
p1085
g2
(g3
tp1086
Rp1087
g16
I1
ssS'searing'
p1088
g2
(g3
tp1089
Rp1090
g30
I1
ssS'blackberry'
p1091
g2
(g3
tp1092
Rp1093
g46
I1
ssS'core'
p1094
g2
(g3
tp1095
Rp1096
g87
I1
ssS'pepper'
p1097
g2
(g3
tp1098
Rp1099
g53
I1
sg87
I1
ssS'hoohah'
p1100
g2
(g3
tp1101
Rp1102
g53
I1
ssS'palmer'
p1103
g2
(g3
tp1104
Rp1105
g73
I1
ssS'stem'
p1106
g2
(g3
tp1107
Rp1108
g46
I1
ssS'raspberry'
p1109
g2
(g3
tp1110
Rp1111
g53
I1
ssS'super'
p1112
g2
(g3
tp1113
Rp1114
g30
I1
ssS'stage'
p1115
g2
(g3
tp1116
Rp1117
g14
I1
ssS'stone'
p1118
g2
(g3
tp1119
Rp1120
g63
I1
ssS'justin'
p1121
g2
(g3
tp1122
Rp1123
g15
I1
ssS'saddle'
p1124
g2
(g3
tp1125
Rp1126
g108
I1
ssS'plum'
p1127
g2
(g3
tp1128
Rp1129
g10
I1
sg118
I1
ssS'favorite'
p1130
g2
(g3
tp1131
Rp1132
g108
I1
ssS'lifeless'
p1133
g2
(g3
tp1134
Rp1135
g91
I1
ssS'dinner'
p1136
g2
(g3
tp1137
Rp1138
g15
I1
sg16
I1
ssS'sweat'
p1139
g2
(g3
tp1140
Rp1141
g108
I1
ssS'tannic'
p1142
g2
(g3
tp1143
Rp1144
g53
I1
ssS'polished'
p1145
g2
(g3
tp1146
Rp1147
g46
I1
ssS'plenty'
p1148
g2
(g3
tp1149
Rp1150
g14
I1
sg15
I1
ssS'charts'
p1151
g2
(g3
tp1152
Rp1153
g41
I1
ssS'overripe'
p1154
g2
(g3
tp1155
Rp1156
g45
I1
sg10
I1
ssS'gary'
p1157
g2
(g3
tp1158
Rp1159
g6
I1
ssS'omfg'
p1160
g2
(g3
tp1161
Rp1162
g41
I1
sg53
I1
ssS'1985'
p1163
g2
(g3
tp1164
Rp1165
g95
I1
ssS'1982'
p1166
g2
(g3
tp1167
Rp1168
g16
I1
ssS'val'
p1169
g2
(g3
tp1170
Rp1171
g15
I1
ssS'tasting'
p1172
g2
(g3
tp1173
Rp1174
g63
I1
ssS'amazingly'
p1175
g2
(g3
tp1176
Rp1177
g77
I1
sg15
I1
ssS'initial'
p1178
g2
(g3
tp1179
Rp1180
g26
I1
sg15
I1
ssS'long'
p1181
g2
(g3
tp1182
Rp1183
g30
I1
ssS'start'
p1184
g2
(g3
tp1185
Rp1186
g77
I1
ssS'lithe'
p1187
g2
(g3
tp1188
Rp1189
g45
I1
ssS'lot'
p1190
g2
(g3
tp1191
Rp1192
g77
I1
sg15
I1
ssS'forward'
p1193
g2
(g3
tp1194
Rp1195
g15
I1
sg16
I1
ssS'troubling'
p1196
g2
(g3
tp1197
Rp1198
g10
I1
ssS'considerably'
p1199
g2
(g3
tp1200
Rp1201
g108
I2
ssS'spicy'
p1202
g2
(g3
tp1203
Rp1204
g108
I1
sg77
I1
sg15
I1
sg16
I1
ssS'heat'
p1205
g2
(g3
tp1206
Rp1207
g53
I1
ssS'pitched'
p1208
g2
(g3
tp1209
Rp1210
g87
I1
ssS'spice'
p1211
g2
(g3
tp1212
Rp1213
g15
I1
ssS'toned'
p1214
g2
(g3
tp1215
Rp1216
g15
I1
ssS'characteristic'
p1217
g2
(g3
tp1218
Rp1219
g45
I1
ssS'dirty'
p1220
g2
(g3
tp1221
Rp1222
g108
I1
ssS'mouthwatering'
p1223
g2
(g3
tp1224
Rp1225
g63
I1
ssS'minutes'
p1226
g2
(g3
tp1227
Rp1228
g77
I1
ssS'palate'
p1229
g2
(g3
tp1230
Rp1231
g63
I1
sg26
I1
sg108
I1
sg118
I1
sg30
I1
sg95
I1
sg15
I1
sg45
I1
sg91
I1
sg46
I1
sg77
I1
sg16
I1
ssS'acidity'
p1232
g2
(g3
tp1233
Rp1234
g63
I1
sg45
I1
ssS'taste'
p1235
g2
(g3
tp1236
Rp1237
g26
I1
sg6
I1
ssS'guessed'
p1238
g2
(g3
tp1239
Rp1240
g63
I1
sg26
I1
ssS'graceful'
p1241
g2
(g3
tp1242
Rp1243
g45
I1
ssS'fill'
p1244
g2
(g3
tp1245
Rp1246
g10
I1
sg16
I1
ssS'compared'
p1247
g2
(g3
tp1248
Rp1249
g16
I1
ssS'lemon'
p1250
g2
(g3
tp1251
Rp1252
g63
I1
ssS'krug'
p1253
g2
(g3
tp1254
Rp1255
g26
I1
ssS'oak'
p1256
g2
(g3
tp1257
Rp1258
g91
I1
ssS'depth'
p1259
g2
(g3
tp1260
Rp1261
g53
I1
ssS'tight'
p1262
g2
(g3
tp1263
Rp1264
g77
I1
sg87
I1
sg16
I1
ssS'holding'
p1265
g2
(g3
tp1266
Rp1267
g15
I1
ssS'incredibly'
p1268
g2
(g3
tp1269
Rp1270
g41
I1
ssS'nice'
p1271
g2
(g3
tp1272
Rp1273
g95
I1
sg45
I2
sg87
I2
ssS'june'
p1274
g2
(g3
tp1275
Rp1276
g77
I1
ssS'foil'
p1277
g2
(g3
tp1278
Rp1279
g16
I1
ssS'cabernet'
p1280
g2
(g3
tp1281
Rp1282
g45
I1
ssS'structure'
p1283
g2
(g3
tp1284
Rp1285
g15
I1
sg53
I1
ssS'alcohol'
p1286
g2
(g3
tp1287
Rp1288
g37
I1
ssS'chalky'
p1289
g2
(g3
tp1290
Rp1291
g63
I1
ssS'younger'
p1292
g2
(g3
tp1293
Rp1294
g16
I1
ssS'longer'
p1295
g2
(g3
tp1296
Rp1297
g108
I1
ssS'age'
p1298
g2
(g3
tp1299
Rp1300
g91
I1
ssS'2003'
p1301
g2
(g3
tp1302
Rp1303
g37
I1
ssS'2000'
p1304
g2
(g3
tp1305
Rp1306
g16
I1
ssS'2001'
p1307
g2
(g3
tp1308
Rp1309
g53
I1
sg87
I1
ssS'fact'
p1310
g2
(g3
tp1311
Rp1312
g63
I1
sg16
I1
ssS'time'
p1313
g2
(g3
tp1314
Rp1315
g108
I1
sg37
I1
sg77
I2
ssS'fresh'
p1316
g2
(g3
tp1317
Rp1318
g46
I1
sg37
I1
ssS'berries'
p1319
g2
(g3
tp1320
Rp1321
g45
I1
ss.